target datalayout = "e-m:e-p270:32:32-p271:32:32-p272:64:64-i64:64-i128:128-f80:128-n8:16:32:64-S128"
target triple = "x86_64-pc-linux-gnu"

%class.ThreadShadow = type <{ ptr, ptr, ptr, i32, [4 x i8] }>
%class.JavaValue = type { i8, %"union.JavaValue::JavaCallValue" }
%"union.JavaValue::JavaCallValue" = type { double }

@_ZN6Symbol11_vm_symbolsE = external global [0 x ptr], align 8
@_ZN9vmClasses8_klassesE = external global [0 x ptr], align 8

; Function Attrs: mustprogress nounwind uwtable
define linkonce_odr hidden noundef ptr @_ZN9vmClasses11check_klassEP13InstanceKlass(ptr noundef %0) #1 comdat align 2 {
  %2 = alloca ptr, align 8
  store ptr %0, ptr %2, align 8
  %3 = load ptr, ptr %2, align 8
  ret ptr %3
}

; Function Attrs: mustprogress nounwind uwtable
define linkonce_odr hidden noundef zeroext i1 @_ZNK12ThreadShadow21has_pending_exceptionEv(ptr noundef nonnull align 8 dereferenceable(28) %0) #1 comdat align 2 {
  %2 = alloca ptr, align 8
  store ptr %0, ptr %2, align 8
  %3 = load ptr, ptr %2, align 8
  %4 = getelementptr inbounds %class.ThreadShadow, ptr %3, i32 0, i32 1
  %5 = load ptr, ptr %4, align 8
  %6 = icmp ne ptr %5, null
  ret i1 %6
}

; Function Attrs: mustprogress nounwind uwtable
define linkonce_odr hidden noundef ptr @_ZN9vmSymbols21void_method_signatureEv() #1 comdat align 2 {
  %1 = load ptr, ptr getelementptr inbounds ([0 x ptr], ptr @_ZN6Symbol11_vm_symbolsE, i64 0, i64 844), align 8
  ret ptr %1
}

; Function Attrs: mustprogress nounwind uwtable
define linkonce_odr hidden noundef ptr @_ZN9vmSymbols15initPhase1_nameEv() #1 comdat align 2 {
  %1 = load ptr, ptr getelementptr inbounds ([0 x ptr], ptr @_ZN6Symbol11_vm_symbolsE, i64 0, i64 100), align 8
  ret ptr %1
}

; Function Attrs: mustprogress nounwind uwtable
define linkonce_odr hidden void @_ZN9JavaValueC2E9BasicType(ptr noundef nonnull align 8 dereferenceable(16) %0, i8 noundef zeroext %1) unnamed_addr #1 comdat align 2 {
  %3 = alloca ptr, align 8
  %4 = alloca i8, align 1
  store ptr %0, ptr %3, align 8
  store i8 %1, ptr %4, align 1
  %5 = load ptr, ptr %3, align 8
  %6 = load i8, ptr %4, align 1
  %7 = getelementptr inbounds %class.JavaValue, ptr %5, i32 0, i32 0
  store i8 %6, ptr %7, align 8
  ret void
}

; Function Attrs: mustprogress nounwind uwtable
define linkonce_odr hidden noundef ptr @_ZN9vmClasses12System_klassEv() #1 comdat align 2 {
  %1 = load ptr, ptr getelementptr inbounds ([0 x ptr], ptr @_ZN9vmClasses8_klassesE, i64 0, i64 6), align 8
  %2 = call noundef ptr @_ZN9vmClasses11check_klassEP13InstanceKlass(ptr noundef %1)
  ret ptr %2
}

; Function Attrs: mustprogress nounwind uwtable
define internal void @_ZL15call_initPhase1P10JavaThread(ptr noundef %0) #1 {
  %2 = alloca ptr, align 8
  %3 = alloca ptr, align 8
  %4 = alloca %class.JavaValue, align 8
  store ptr %0, ptr %2, align 8
  %5 = call noundef ptr @_ZN9vmClasses12System_klassEv()
  store ptr %5, ptr %3, align 8
  call void @_ZN9JavaValueC2E9BasicType(ptr noundef nonnull align 8 dereferenceable(16) %4, i8 noundef zeroext 14)
  %6 = load ptr, ptr %3, align 8
  %7 = call noundef ptr @_ZN9vmSymbols15initPhase1_nameEv()
  %8 = call noundef ptr @_ZN9vmSymbols21void_method_signatureEv()
  %9 = load ptr, ptr %2, align 8
  call void @_ZN9JavaCalls11call_staticEP9JavaValueP5KlassP6SymbolS5_P10JavaThread(ptr noundef %4, ptr noundef %6, ptr noundef %7, ptr noundef %8, ptr noundef %9)
  %10 = load ptr, ptr %2, align 8
  %11 = call noundef zeroext i1 @_ZNK12ThreadShadow21has_pending_exceptionEv(ptr noundef nonnull align 8 dereferenceable(28) %10)
  br i1 %11, label %12, label %13

12:                                               ; preds = %1
  br label %13

13:                                               ; preds = %12, %1
  ret void
}