; Function Attrs: mustprogress nounwind uwtable
define internal fastcc void @_ZL15call_initPhase1P10JavaThread(ptr noundef %0) unnamed_addr #0 {
  %2 = alloca %class.JavaValue, align 8
  %3 = load ptr, ptr getelementptr inbounds (i8, ptr @_ZN9vmClasses8_klassesE, i64 48), align 8
  store i8 14, ptr %2, align 8
  %4 = load ptr, ptr getelementptr inbounds (i8, ptr @_ZN6Symbol11_vm_symbolsE, i64 800), align 8
  %5 = load ptr, ptr getelementptr inbounds (i8, ptr @_ZN6Symbol11_vm_symbolsE, i64 6752), align 8
  call void @_ZN9JavaCalls11call_staticEP9JavaValueP5KlassP6SymbolS5_P10JavaThread(ptr noundef nonnull %2, ptr noundef %3, ptr noundef %4, ptr noundef %5, ptr noundef %0) #15
  ret void
}